target datalayout = "e-m:e-p270:32:32-p271:32:32-p272:64:64-i64:64-i128:128-f80:128-n8:16:32:64-S128"
target triple = "x86_64-pc-linux-gnu"

%struct._archiveHandle = type { %struct.Archive, i32, ptr, ptr, i64, i64, i32, %struct.sqlparseInfo, i64, i32, ptr, i64, i64, i64, ptr, ptr, ptr, ptr, ptr, ptr, ptr, ptr, ptr, ptr, ptr, ptr, ptr, ptr, ptr, ptr, ptr, ptr, ptr, ptr, ptr, ptr, ptr, ptr, ptr, ptr, ptr, ptr, ptr, ptr, i32, i32, i8, i32, i8, i32, ptr, ptr, ptr, ptr, i32, i32, ptr, ptr, ptr, %struct.pg_compress_specification, i8, i32, i32, ptr, ptr, ptr, ptr, ptr, i32, ptr, i64, i64, i32, i32, i32, i32, ptr, ptr }
%struct.Archive = type { ptr, ptr, i32, ptr, i32, i8, i32, i32, i32, ptr, i32, i8, ptr, ptr, i8, i32, ptr }
%struct.sqlparseInfo = type { i32, i8, ptr }
%struct.pg_compress_specification = type { i32, i32, i32, i32, i8, ptr }
%struct.lclContext = type { ptr, i32, i64 }

@.str.19 = private unnamed_addr constant [54 x i8] c"could not determine seek position in archive file: %m\00", align 1
@.str.20 = private unnamed_addr constant [33 x i8] c"could not close archive file: %m\00", align 1

; Function Attrs: nounwind uwtable
define internal void @_CloseArchive(ptr noundef %0) #0 {
  %2 = alloca ptr, align 8
  %3 = alloca ptr, align 8
  %4 = alloca i64, align 8
  store ptr %0, ptr %2, align 8
  call void @llvm.lifetime.start.p0(i64 8, ptr %3) #7
  %5 = load ptr, ptr %2, align 8
  %6 = getelementptr inbounds nuw %struct._archiveHandle, ptr %5, i32 0, i32 63
  %7 = load ptr, ptr %6, align 8
  store ptr %7, ptr %3, align 8
  call void @llvm.lifetime.start.p0(i64 8, ptr %4) #7
  %8 = load ptr, ptr %2, align 8
  %9 = getelementptr inbounds nuw %struct._archiveHandle, ptr %8, i32 0, i32 62
  %10 = load i32, ptr %9, align 8
  %11 = icmp eq i32 %10, 1
  br i1 %11, label %12, label %46

12:                                               ; preds = %1
  %13 = load ptr, ptr %2, align 8
  call void @WriteHead(ptr noundef %13)
  %14 = load ptr, ptr %2, align 8
  %15 = getelementptr inbounds nuw %struct._archiveHandle, ptr %14, i32 0, i32 51
  %16 = load ptr, ptr %15, align 8
  %17 = call i64 @ftello(ptr noundef %16)
  store i64 %17, ptr %4, align 8
  %18 = load i64, ptr %4, align 8
  %19 = icmp slt i64 %18, 0
  br i1 %19, label %20, label %29

20:                                               ; preds = %12
  %21 = load ptr, ptr %3, align 8
  %22 = getelementptr inbounds nuw %struct.lclContext, ptr %21, i32 0, i32 1
  %23 = load i32, ptr %22, align 8
  %24 = icmp ne i32 %23, 0
  br i1 %24, label %25, label %29

25:                                               ; preds = %20
  br label %26

26:                                               ; preds = %25
  call void (i32, i32, ptr, ...) @pg_log_generic(i32 noundef 4, i32 noundef 0, ptr noundef @.str.19)
  call void @exit_nicely(i32 noundef 1) #9
  unreachable

27:                                               ; No predecessors!
  br label %28

28:                                               ; preds = %27
  br label %29

29:                                               ; preds = %28, %20, %12
  %30 = load ptr, ptr %2, align 8
  call void @WriteToc(ptr noundef %30)
  %31 = load ptr, ptr %2, align 8
  call void @WriteDataChunks(ptr noundef %31, ptr noundef null)
  %32 = load ptr, ptr %3, align 8
  %33 = getelementptr inbounds nuw %struct.lclContext, ptr %32, i32 0, i32 1
  %34 = load i32, ptr %33, align 8
  %35 = icmp ne i32 %34, 0
  br i1 %35, label %36, label %45

36:                                               ; preds = %29
  %37 = load ptr, ptr %2, align 8
  %38 = getelementptr inbounds nuw %struct._archiveHandle, ptr %37, i32 0, i32 51
  %39 = load ptr, ptr %38, align 8
  %40 = load i64, ptr %4, align 8
  %41 = call i32 @fseeko(ptr noundef %39, i64 noundef %40, i32 noundef 0)
  %42 = icmp eq i32 %41, 0
  br i1 %42, label %43, label %45

43:                                               ; preds = %36
  %44 = load ptr, ptr %2, align 8
  call void @WriteToc(ptr noundef %44)
  br label %45

45:                                               ; preds = %43, %36, %29
  br label %46

46:                                               ; preds = %45, %1
  %47 = load ptr, ptr %2, align 8
  %48 = getelementptr inbounds nuw %struct._archiveHandle, ptr %47, i32 0, i32 51
  %49 = load ptr, ptr %48, align 8
  %50 = call i32 @fclose(ptr noundef %49)
  %51 = icmp ne i32 %50, 0
  br i1 %51, label %52, label %56

52:                                               ; preds = %46
  br label %53

53:                                               ; preds = %52
  call void (i32, i32, ptr, ...) @pg_log_generic(i32 noundef 4, i32 noundef 0, ptr noundef @.str.20)
  call void @exit_nicely(i32 noundef 1) #9
  unreachable

54:                                               ; No predecessors!
  br label %55

55:                                               ; preds = %54
  br label %56

56:                                               ; preds = %55, %46
  %57 = load ptr, ptr %2, align 8
  %58 = getelementptr inbounds nuw %struct._archiveHandle, ptr %57, i32 0, i32 60
  %59 = load i8, ptr %58, align 8, !range !4, !noundef !5
  %60 = trunc i8 %59 to i1
  br i1 %60, label %61, label %76

61:                                               ; preds = %56
  %62 = load ptr, ptr %2, align 8
  %63 = getelementptr inbounds nuw %struct._archiveHandle, ptr %62, i32 0, i32 62
  %64 = load i32, ptr %63, align 8
  %65 = icmp eq i32 %64, 1
  br i1 %65, label %66, label %76

66:                                               ; preds = %61
  %67 = load ptr, ptr %2, align 8
  %68 = getelementptr inbounds nuw %struct._archiveHandle, ptr %67, i32 0, i32 50
  %69 = load ptr, ptr %68, align 8
  %70 = icmp ne ptr %69, null
  br i1 %70, label %71, label %76

71:                                               ; preds = %66
  %72 = load ptr, ptr %2, align 8
  %73 = getelementptr inbounds nuw %struct._archiveHandle, ptr %72, i32 0, i32 50
  %74 = load ptr, ptr %73, align 8
  %75 = call i32 @fsync_fname(ptr noundef %74, i1 noundef zeroext false)
  br label %76

76:                                               ; preds = %71, %66, %61, %56
  %77 = load ptr, ptr %2, align 8
  %78 = getelementptr inbounds nuw %struct._archiveHandle, ptr %77, i32 0, i32 51
  store ptr null, ptr %78, align 8
  call void @llvm.lifetime.end.p0(i64 8, ptr %4) #7
  call void @llvm.lifetime.end.p0(i64 8, ptr %3) #7
  ret void
}