; Function Attrs: nounwind uwtable
define internal void @_CloseArchive(ptr noundef %0) #0 {
  %2 = getelementptr inbounds nuw i8, ptr %0, i64 592
  %3 = load ptr, ptr %2, align 8
  %4 = getelementptr inbounds nuw i8, ptr %0, i64 584
  %5 = load i32, ptr %4, align 8
  %6 = icmp eq i32 %5, 1
  br i1 %6, label %7, label %24

7:                                                ; preds = %1
  tail call void @WriteHead(ptr noundef nonnull %0) #7
  %8 = getelementptr inbounds nuw i8, ptr %0, i64 488
  %9 = load ptr, ptr %8, align 8
  %10 = tail call i64 @ftello(ptr noundef %9)
  %11 = icmp slt i64 %10, 0
  br i1 %11, label %12, label %16

12:                                               ; preds = %7
  %13 = getelementptr inbounds nuw i8, ptr %3, i64 8
  %14 = load i32, ptr %13, align 8
  %.not = icmp eq i32 %14, 0
  br i1 %.not, label %16, label %15

15:                                               ; preds = %12
  tail call void (i32, i32, ptr, ...) @pg_log_generic(i32 noundef 4, i32 noundef 0, ptr noundef nonnull @.str.19) #7
  tail call void @exit_nicely(i32 noundef 1) #8
  unreachable

16:                                               ; preds = %12, %7
  tail call void @WriteToc(ptr noundef nonnull %0) #7
  tail call void @WriteDataChunks(ptr noundef nonnull %0, ptr noundef null) #7
  %17 = getelementptr inbounds nuw i8, ptr %3, i64 8
  %18 = load i32, ptr %17, align 8
  %.not17 = icmp eq i32 %18, 0
  br i1 %.not17, label %24, label %19

19:                                               ; preds = %16
  %20 = load ptr, ptr %8, align 8
  %21 = tail call i32 @fseeko(ptr noundef %20, i64 noundef %10, i32 noundef 0)
  %22 = icmp eq i32 %21, 0
  br i1 %22, label %23, label %24

23:                                               ; preds = %19
  tail call void @WriteToc(ptr noundef nonnull %0) #7
  br label %24

24:                                               ; preds = %16, %19, %23, %1
  %25 = getelementptr inbounds nuw i8, ptr %0, i64 488
  %26 = load ptr, ptr %25, align 8
  %27 = tail call i32 @fclose(ptr noundef %26)
  %.not18 = icmp eq i32 %27, 0
  br i1 %.not18, label %29, label %28

28:                                               ; preds = %24
  tail call void (i32, i32, ptr, ...) @pg_log_generic(i32 noundef 4, i32 noundef 0, ptr noundef nonnull @.str.20) #7
  tail call void @exit_nicely(i32 noundef 1) #8
  unreachable

29:                                               ; preds = %24
  %30 = getelementptr inbounds nuw i8, ptr %0, i64 576
  %31 = load i8, ptr %30, align 8, !range !4, !noundef !5
  %32 = trunc nuw i8 %31 to i1
  br i1 %32, label %33, label %41

33:                                               ; preds = %29
  %34 = load i32, ptr %4, align 8
  %35 = icmp eq i32 %34, 1
  br i1 %35, label %36, label %41

36:                                               ; preds = %33
  %37 = getelementptr inbounds nuw i8, ptr %0, i64 480
  %38 = load ptr, ptr %37, align 8
  %.not19 = icmp eq ptr %38, null
  br i1 %.not19, label %41, label %39

39:                                               ; preds = %36
  %40 = tail call i32 @fsync_fname(ptr noundef nonnull %38, i1 noundef zeroext false) #7
  br label %41

41:                                               ; preds = %39, %36, %33, %29
  store ptr null, ptr %25, align 8
  ret void
}